target datalayout = "e-m:e-p270:32:32-p271:32:32-p272:64:64-i64:64-i128:128-f80:128-n8:16:32:64-S128"
target triple = "x86_64-pc-linux-gnu"

%"class.llvm::SmallVectorBase" = type { ptr, i32, i32 }
%"class.llvm::iterator_range" = type { ptr, ptr }
%"class.llvm::ResourcePriorityQueue" = type { %"class.llvm::SchedulingPriorityQueue.base", ptr, %"class.std::vector", %"class.std::vector.13", %"class.std::vector", %"class.std::vector", %"struct.llvm::resource_sort", ptr, ptr, ptr, ptr, %"class.std::unique_ptr", %"class.std::vector.13", i32, i32 }
%"class.llvm::SchedulingPriorityQueue.base" = type <{ ptr, i32, i8 }>
%"class.std::vector" = type { %"struct.std::_Vector_base" }
%"struct.std::_Vector_base" = type { %"struct.std::_Vector_base<unsigned int, std::allocator<unsigned int>>::_Vector_impl" }
%"struct.std::_Vector_base<unsigned int, std::allocator<unsigned int>>::_Vector_impl" = type { %"struct.std::_Vector_base<unsigned int, std::allocator<unsigned int>>::_Vector_impl_data" }
%"struct.std::_Vector_base<unsigned int, std::allocator<unsigned int>>::_Vector_impl_data" = type { ptr, ptr, ptr }
%"struct.llvm::resource_sort" = type { ptr }
%"class.std::unique_ptr" = type { %"struct.std::__uniq_ptr_data" }
%"struct.std::__uniq_ptr_data" = type { %"class.std::__uniq_ptr_impl" }
%"class.std::__uniq_ptr_impl" = type { %"class.std::tuple" }
%"class.std::tuple" = type { %"struct.std::_Tuple_impl" }
%"struct.std::_Tuple_impl" = type { %"struct.std::_Head_base.19" }
%"struct.std::_Head_base.19" = type { ptr }
%"class.std::vector.13" = type { %"struct.std::_Vector_base.14" }
%"struct.std::_Vector_base.14" = type { %"struct.std::_Vector_base<llvm::SUnit *, std::allocator<llvm::SUnit *>>::_Vector_impl" }
%"struct.std::_Vector_base<llvm::SUnit *, std::allocator<llvm::SUnit *>>::_Vector_impl" = type { %"struct.std::_Vector_base<llvm::SUnit *, std::allocator<llvm::SUnit *>>::_Vector_impl_data" }
%"struct.std::_Vector_base<llvm::SUnit *, std::allocator<llvm::SUnit *>>::_Vector_impl_data" = type { ptr, ptr, ptr }
%"class.llvm::ilist_node_base" = type { %"class.llvm::ilist_detail::node_base_prevnext" }
%"class.llvm::ilist_detail::node_base_prevnext" = type { ptr, ptr }
%"class.llvm::TargetRegisterClass" = type { ptr, ptr, ptr, %"struct.llvm::LaneBitmask", i8, i8, i8, i8, i8, ptr, ptr }
%"struct.llvm::LaneBitmask" = type { i64 }
%"class.llvm::SUnit" = type <{ %union.anon.144, ptr, ptr, ptr, ptr, %"class.llvm::SmallVector.145", %"class.llvm::SmallVector.145", i32, i32, i32, i32, i32, i32, i32, i32, i32, i32, i32, i32, i16, i16, i16, i8, i8 }>
%union.anon.144 = type { ptr }
%"class.llvm::SmallVector.145" = type { %"class.llvm::SmallVectorImpl.146", %"struct.llvm::SmallVectorStorage.149" }
%"class.llvm::SmallVectorImpl.146" = type { %"class.llvm::SmallVectorTemplateBase.147" }
%"class.llvm::SmallVectorTemplateBase.147" = type { %"class.llvm::SmallVectorTemplateCommon.148" }
%"class.llvm::SmallVectorTemplateCommon.148" = type { %"class.llvm::SmallVectorBase" }
%"struct.llvm::SmallVectorStorage.149" = type { [64 x i8] }
%"class.llvm::SDNode" = type { %"class.llvm::FoldingSetBase::Node", %"class.llvm::ilist_node", i32, %"struct.llvm::SDNodeFlags", %union.anon.153, i16, i32, ptr, ptr, ptr, i16, i16, i32, %"class.llvm::DebugLoc", i32, i32 }
%"class.llvm::FoldingSetBase::Node" = type { ptr }
%"class.llvm::ilist_node" = type { %"class.llvm::ilist_node_impl.151" }
%"class.llvm::ilist_node_impl.151" = type { %"class.llvm::ilist_node_base" }
%"struct.llvm::SDNodeFlags" = type { i16 }
%union.anon.153 = type { %"class.llvm::SDNode::LSBaseSDNodeBitfields" }
%"class.llvm::SDNode::LSBaseSDNodeBitfields" = type { i16 }
%"class.llvm::DebugLoc" = type { %"class.llvm::TypedTrackingMDRef" }
%"class.llvm::TypedTrackingMDRef" = type { %"class.llvm::TrackingMDRef" }
%"class.llvm::TrackingMDRef" = type { ptr }
%"class.llvm::TargetRegisterInfo" = type <{ ptr, %"class.llvm::MCRegisterInfo", ptr, ptr, ptr, ptr, ptr, ptr, %"struct.llvm::LaneBitmask", ptr, ptr, i32, [4 x i8] }>
%"class.llvm::MCRegisterInfo" = type { ptr, i32, %"class.llvm::MCRegister", %"class.llvm::MCRegister", ptr, i32, i32, ptr, ptr, ptr, ptr, ptr, ptr, i32, ptr, i32, i32, i32, i32, ptr, ptr, ptr, ptr, %"class.llvm::DenseMap.136", %"class.llvm::DenseMap.136", %"class.std::vector.139" }
%"class.llvm::MCRegister" = type { i32 }
%"class.llvm::DenseMap.136" = type <{ ptr, i32, i32, i32, [4 x i8] }>
%"class.std::vector.139" = type { %"struct.std::_Vector_base.140" }
%"struct.std::_Vector_base.140" = type { %"struct.std::_Vector_base<std::vector<unsigned short>, std::allocator<std::vector<unsigned short>>>::_Vector_impl" }
%"struct.std::_Vector_base<std::vector<unsigned short>, std::allocator<std::vector<unsigned short>>>::_Vector_impl" = type { %"struct.std::_Vector_base<std::vector<unsigned short>, std::allocator<std::vector<unsigned short>>>::_Vector_impl_data" }
%"struct.std::_Vector_base<std::vector<unsigned short>, std::allocator<std::vector<unsigned short>>>::_Vector_impl_data" = type { ptr, ptr, ptr }
%"class.llvm::MCRegisterClass" = type { ptr, ptr, i32, i16, i16, i16, i16, i8, i8, i8 }

; Function Attrs: mustprogress nounwind uwtable
define linkonce_odr hidden void @_ZN4llvm14iterator_rangeIPKPKNS_19TargetRegisterClassEEC2ES5_S5_(ptr noundef nonnull align 8 dereferenceable(16) %0, ptr noundef %1, ptr noundef %2) unnamed_addr #1 comdat align 2 {
  %4 = alloca ptr, align 8
  %5 = alloca ptr, align 8
  %6 = alloca ptr, align 8
  store ptr %0, ptr %4, align 8
  store ptr %1, ptr %5, align 8
  store ptr %2, ptr %6, align 8
  %7 = load ptr, ptr %4, align 8
  %8 = getelementptr inbounds nuw %"class.llvm::iterator_range", ptr %7, i32 0, i32 0
  %9 = load ptr, ptr %5, align 8
  store ptr %9, ptr %8, align 8
  %10 = getelementptr inbounds nuw %"class.llvm::iterator_range", ptr %7, i32 0, i32 1
  %11 = load ptr, ptr %6, align 8
  store ptr %11, ptr %10, align 8
  ret void
}

; Function Attrs: mustprogress nounwind uwtable
define linkonce_odr hidden noundef i32 @_ZNK4llvm15MCRegisterClass5getIDEv(ptr noundef nonnull align 8 dereferenceable(32) %0) #1 comdat align 2 {
  %2 = alloca ptr, align 8
  store ptr %0, ptr %2, align 8
  %3 = load ptr, ptr %2, align 8
  %4 = getelementptr inbounds nuw %"class.llvm::MCRegisterClass", ptr %3, i32 0, i32 5
  %5 = load i16, ptr %4, align 8
  %6 = zext i16 %5 to i32
  ret i32 %6
}

; Function Attrs: mustprogress nounwind uwtable
define linkonce_odr { ptr, ptr } @_ZN4llvm10make_rangeIPKPKNS_19TargetRegisterClassEEENS_14iterator_rangeIT_EES7_S7_(ptr noundef %0, ptr noundef %1) #1 comdat {
  %3 = alloca %"class.llvm::iterator_range", align 8
  %4 = alloca ptr, align 8
  %5 = alloca ptr, align 8
  store ptr %0, ptr %4, align 8
  store ptr %1, ptr %5, align 8
  %6 = load ptr, ptr %4, align 8
  %7 = load ptr, ptr %5, align 8
  call void @_ZN4llvm14iterator_rangeIPKPKNS_19TargetRegisterClassEEC2ES5_S5_(ptr noundef nonnull align 8 dereferenceable(16) %3, ptr noundef %6, ptr noundef %7)
  %8 = load { ptr, ptr }, ptr %3, align 8
  ret { ptr, ptr } %8
}

; Function Attrs: mustprogress nounwind uwtable
define linkonce_odr hidden noundef ptr @_ZNK4llvm18TargetRegisterInfo12regclass_endEv(ptr noundef nonnull align 8 dereferenceable(308) %0) #1 comdat align 2 {
  %2 = alloca ptr, align 8
  store ptr %0, ptr %2, align 8
  %3 = load ptr, ptr %2, align 8
  %4 = getelementptr inbounds nuw %"class.llvm::TargetRegisterInfo", ptr %3, i32 0, i32 7
  %5 = load ptr, ptr %4, align 8
  ret ptr %5
}

; Function Attrs: mustprogress nounwind uwtable
define linkonce_odr hidden noundef ptr @_ZNK4llvm18TargetRegisterInfo14regclass_beginEv(ptr noundef nonnull align 8 dereferenceable(308) %0) #1 comdat align 2 {
  %2 = alloca ptr, align 8
  store ptr %0, ptr %2, align 8
  %3 = load ptr, ptr %2, align 8
  %4 = getelementptr inbounds nuw %"class.llvm::TargetRegisterInfo", ptr %3, i32 0, i32 6
  %5 = load ptr, ptr %4, align 8
  ret ptr %5
}

; Function Attrs: mustprogress nounwind uwtable
define linkonce_odr hidden noundef nonnull align 4 dereferenceable(4) ptr @_ZNSt6vectorIjSaIjEEixEm(ptr noundef nonnull align 8 dereferenceable(24) %0, i64 noundef %1) #1 comdat align 2 {
  %3 = alloca ptr, align 8
  %4 = alloca i64, align 8
  store ptr %0, ptr %3, align 8
  store i64 %1, ptr %4, align 8
  %5 = load ptr, ptr %3, align 8
  %6 = getelementptr inbounds nuw %"struct.std::_Vector_base", ptr %5, i32 0, i32 0
  %7 = getelementptr inbounds nuw %"struct.std::_Vector_base<unsigned int, std::allocator<unsigned int>>::_Vector_impl_data", ptr %6, i32 0, i32 0
  %8 = load ptr, ptr %7, align 8
  %9 = load i64, ptr %4, align 8
  %10 = getelementptr inbounds i32, ptr %8, i64 %9
  ret ptr %10
}

; Function Attrs: mustprogress nounwind uwtable
define linkonce_odr hidden noundef i32 @_ZNK4llvm19TargetRegisterClass5getIDEv(ptr noundef nonnull align 8 dereferenceable(56) %0) #1 comdat align 2 {
  %2 = alloca ptr, align 8
  store ptr %0, ptr %2, align 8
  %3 = load ptr, ptr %2, align 8
  %4 = getelementptr inbounds nuw %"class.llvm::TargetRegisterClass", ptr %3, i32 0, i32 0
  %5 = load ptr, ptr %4, align 8
  %6 = call noundef i32 @_ZNK4llvm15MCRegisterClass5getIDEv(ptr noundef nonnull align 8 dereferenceable(32) %5)
  ret i32 %6
}

; Function Attrs: mustprogress nounwind uwtable
define linkonce_odr hidden noundef ptr @_ZNK4llvm14iterator_rangeIPKPKNS_19TargetRegisterClassEE3endEv(ptr noundef nonnull align 8 dereferenceable(16) %0) #1 comdat align 2 {
  %2 = alloca ptr, align 8
  store ptr %0, ptr %2, align 8
  %3 = load ptr, ptr %2, align 8
  %4 = getelementptr inbounds nuw %"class.llvm::iterator_range", ptr %3, i32 0, i32 1
  %5 = load ptr, ptr %4, align 8
  ret ptr %5
}

; Function Attrs: mustprogress nounwind uwtable
define linkonce_odr hidden noundef ptr @_ZNK4llvm14iterator_rangeIPKPKNS_19TargetRegisterClassEE5beginEv(ptr noundef nonnull align 8 dereferenceable(16) %0) #1 comdat align 2 {
  %2 = alloca ptr, align 8
  store ptr %0, ptr %2, align 8
  %3 = load ptr, ptr %2, align 8
  %4 = getelementptr inbounds nuw %"class.llvm::iterator_range", ptr %3, i32 0, i32 0
  %5 = load ptr, ptr %4, align 8
  ret ptr %5
}

; Function Attrs: mustprogress nounwind uwtable
define linkonce_odr hidden { ptr, ptr } @_ZNK4llvm18TargetRegisterInfo10regclassesEv(ptr noundef nonnull align 8 dereferenceable(308) %0) #1 comdat align 2 {
  %2 = alloca %"class.llvm::iterator_range", align 8
  %3 = alloca ptr, align 8
  store ptr %0, ptr %3, align 8
  %4 = load ptr, ptr %3, align 8
  %5 = call noundef ptr @_ZNK4llvm18TargetRegisterInfo14regclass_beginEv(ptr noundef nonnull align 8 dereferenceable(308) %4)
  %6 = call noundef ptr @_ZNK4llvm18TargetRegisterInfo12regclass_endEv(ptr noundef nonnull align 8 dereferenceable(308) %4)
  %7 = call { ptr, ptr } @_ZN4llvm10make_rangeIPKPKNS_19TargetRegisterClassEEENS_14iterator_rangeIT_EES7_S7_(ptr noundef %5, ptr noundef %6)
  %8 = getelementptr inbounds nuw { ptr, ptr }, ptr %2, i32 0, i32 0
  %9 = extractvalue { ptr, ptr } %7, 0
  store ptr %9, ptr %8, align 8
  %10 = getelementptr inbounds nuw { ptr, ptr }, ptr %2, i32 0, i32 1
  %11 = extractvalue { ptr, ptr } %7, 1
  store ptr %11, ptr %10, align 8
  %12 = load { ptr, ptr }, ptr %2, align 8
  ret { ptr, ptr } %12
}

; Function Attrs: mustprogress nounwind uwtable
define linkonce_odr hidden noundef zeroext i1 @_ZNK4llvm6SDNode15isMachineOpcodeEv(ptr noundef nonnull align 8 dereferenceable(88) %0) #1 comdat align 2 {
  %2 = alloca ptr, align 8
  store ptr %0, ptr %2, align 8
  %3 = load ptr, ptr %2, align 8
  %4 = getelementptr inbounds nuw %"class.llvm::SDNode", ptr %3, i32 0, i32 2
  %5 = load i32, ptr %4, align 8
  %6 = icmp slt i32 %5, 0
  ret i1 %6
}

; Function Attrs: mustprogress nounwind uwtable
define linkonce_odr hidden noundef ptr @_ZNK4llvm5SUnit7getNodeEv(ptr noundef nonnull align 8 dereferenceable(255) %0) #1 comdat align 2 {
  %2 = alloca ptr, align 8
  store ptr %0, ptr %2, align 8
  %3 = load ptr, ptr %2, align 8
  %4 = getelementptr inbounds nuw %"class.llvm::SUnit", ptr %3, i32 0, i32 0
  %5 = load ptr, ptr %4, align 8
  ret ptr %5
}

; Function Attrs: mustprogress nounwind uwtable
define dso_local noundef i32 @_ZN4llvm21ResourcePriorityQueue16regPressureDeltaEPNS_5SUnitEb(ptr noundef nonnull align 8 dereferenceable(200) %0, ptr noundef %1, i1 noundef zeroext %2) #1 align 2 {
  %4 = alloca i32, align 4
  %5 = alloca ptr, align 8
  %6 = alloca ptr, align 8
  %7 = alloca i8, align 1
  %8 = alloca i32, align 4
  %9 = alloca ptr, align 8
  %10 = alloca %"class.llvm::iterator_range", align 8
  %11 = alloca ptr, align 8
  %12 = alloca ptr, align 8
  %13 = alloca ptr, align 8
  %14 = alloca ptr, align 8
  %15 = alloca %"class.llvm::iterator_range", align 8
  %16 = alloca ptr, align 8
  %17 = alloca ptr, align 8
  %18 = alloca ptr, align 8
  store ptr %0, ptr %5, align 8
  store ptr %1, ptr %6, align 8
  %19 = zext i1 %2 to i8
  store i8 %19, ptr %7, align 1
  %20 = load ptr, ptr %5, align 8
  store i32 0, ptr %8, align 4
  %21 = load ptr, ptr %6, align 8
  %22 = icmp ne ptr %21, null
  br i1 %22, label %23, label %31

23:                                               ; preds = %3
  %24 = load ptr, ptr %6, align 8
  %25 = call noundef ptr @_ZNK4llvm5SUnit7getNodeEv(ptr noundef nonnull align 8 dereferenceable(255) %24)
  %26 = icmp ne ptr %25, null
  br i1 %26, label %27, label %31

27:                                               ; preds = %23
  %28 = load ptr, ptr %6, align 8
  %29 = call noundef ptr @_ZNK4llvm5SUnit7getNodeEv(ptr noundef nonnull align 8 dereferenceable(255) %28)
  %30 = call noundef zeroext i1 @_ZNK4llvm6SDNode15isMachineOpcodeEv(ptr noundef nonnull align 8 dereferenceable(88) %29)
  br i1 %30, label %33, label %31

31:                                               ; preds = %27, %23, %3
  %32 = load i32, ptr %8, align 4
  store i32 %32, ptr %4, align 4
  br label %129

33:                                               ; preds = %27
  %34 = load i8, ptr %7, align 1
  %35 = trunc i8 %34 to i1
  br i1 %35, label %36, label %65

36:                                               ; preds = %33
  %37 = getelementptr inbounds nuw %"class.llvm::ResourcePriorityQueue", ptr %20, i32 0, i32 7
  %38 = load ptr, ptr %37, align 8
  %39 = call { ptr, ptr } @_ZNK4llvm18TargetRegisterInfo10regclassesEv(ptr noundef nonnull align 8 dereferenceable(308) %38)
  %40 = getelementptr inbounds nuw { ptr, ptr }, ptr %10, i32 0, i32 0
  %41 = extractvalue { ptr, ptr } %39, 0
  store ptr %41, ptr %40, align 8
  %42 = getelementptr inbounds nuw { ptr, ptr }, ptr %10, i32 0, i32 1
  %43 = extractvalue { ptr, ptr } %39, 1
  store ptr %43, ptr %42, align 8
  store ptr %10, ptr %9, align 8
  %44 = load ptr, ptr %9, align 8
  %45 = call noundef ptr @_ZNK4llvm14iterator_rangeIPKPKNS_19TargetRegisterClassEE5beginEv(ptr noundef nonnull align 8 dereferenceable(16) %44)
  store ptr %45, ptr %11, align 8
  %46 = load ptr, ptr %9, align 8
  %47 = call noundef ptr @_ZNK4llvm14iterator_rangeIPKPKNS_19TargetRegisterClassEE3endEv(ptr noundef nonnull align 8 dereferenceable(16) %46)
  store ptr %47, ptr %12, align 8
  br label %48

48:                                               ; preds = %61, %36
  %49 = load ptr, ptr %11, align 8
  %50 = load ptr, ptr %12, align 8
  %51 = icmp ne ptr %49, %50
  br i1 %51, label %52, label %64

52:                                               ; preds = %48
  %53 = load ptr, ptr %11, align 8
  %54 = load ptr, ptr %53, align 8
  store ptr %54, ptr %13, align 8
  %55 = load ptr, ptr %6, align 8
  %56 = load ptr, ptr %13, align 8
  %57 = call noundef i32 @_ZNK4llvm19TargetRegisterClass5getIDEv(ptr noundef nonnull align 8 dereferenceable(56) %56)
  %58 = call noundef i32 @_ZN4llvm21ResourcePriorityQueue19rawRegPressureDeltaEPNS_5SUnitEj(ptr noundef nonnull align 8 dereferenceable(200) %20, ptr noundef %55, i32 noundef %57)
  %59 = load i32, ptr %8, align 4
  %60 = add nsw i32 %59, %58
  store i32 %60, ptr %8, align 4
  br label %61

61:                                               ; preds = %52
  %62 = load ptr, ptr %11, align 8
  %63 = getelementptr inbounds ptr, ptr %62, i32 1
  store ptr %63, ptr %11, align 8
  br label %48

64:                                               ; preds = %48
  br label %127

65:                                               ; preds = %33
  %66 = getelementptr inbounds nuw %"class.llvm::ResourcePriorityQueue", ptr %20, i32 0, i32 7
  %67 = load ptr, ptr %66, align 8
  %68 = call { ptr, ptr } @_ZNK4llvm18TargetRegisterInfo10regclassesEv(ptr noundef nonnull align 8 dereferenceable(308) %67)
  %69 = getelementptr inbounds nuw { ptr, ptr }, ptr %15, i32 0, i32 0
  %70 = extractvalue { ptr, ptr } %68, 0
  store ptr %70, ptr %69, align 8
  %71 = getelementptr inbounds nuw { ptr, ptr }, ptr %15, i32 0, i32 1
  %72 = extractvalue { ptr, ptr } %68, 1
  store ptr %72, ptr %71, align 8
  store ptr %15, ptr %14, align 8
  %73 = load ptr, ptr %14, align 8
  %74 = call noundef ptr @_ZNK4llvm14iterator_rangeIPKPKNS_19TargetRegisterClassEE5beginEv(ptr noundef nonnull align 8 dereferenceable(16) %73)
  store ptr %74, ptr %16, align 8
  %75 = load ptr, ptr %14, align 8
  %76 = call noundef ptr @_ZNK4llvm14iterator_rangeIPKPKNS_19TargetRegisterClassEE3endEv(ptr noundef nonnull align 8 dereferenceable(16) %75)
  store ptr %76, ptr %17, align 8
  br label %77

77:                                               ; preds = %123, %65
  %78 = load ptr, ptr %16, align 8
  %79 = load ptr, ptr %17, align 8
  %80 = icmp ne ptr %78, %79
  br i1 %80, label %81, label %126

81:                                               ; preds = %77
  %82 = load ptr, ptr %16, align 8
  %83 = load ptr, ptr %82, align 8
  store ptr %83, ptr %18, align 8
  %84 = getelementptr inbounds nuw %"class.llvm::ResourcePriorityQueue", ptr %20, i32 0, i32 4
  %85 = load ptr, ptr %18, align 8
  %86 = call noundef i32 @_ZNK4llvm19TargetRegisterClass5getIDEv(ptr noundef nonnull align 8 dereferenceable(56) %85)
  %87 = zext i32 %86 to i64
  %88 = call noundef nonnull align 4 dereferenceable(4) ptr @_ZNSt6vectorIjSaIjEEixEm(ptr noundef nonnull align 8 dereferenceable(24) %84, i64 noundef %87) #2
  %89 = load i32, ptr %88, align 4
  %90 = load ptr, ptr %6, align 8
  %91 = load ptr, ptr %18, align 8
  %92 = call noundef i32 @_ZNK4llvm19TargetRegisterClass5getIDEv(ptr noundef nonnull align 8 dereferenceable(56) %91)
  %93 = call noundef i32 @_ZN4llvm21ResourcePriorityQueue19rawRegPressureDeltaEPNS_5SUnitEj(ptr noundef nonnull align 8 dereferenceable(200) %20, ptr noundef %90, i32 noundef %92)
  %94 = add i32 %89, %93
  %95 = icmp ugt i32 %94, 0
  br i1 %95, label %96, label %122

96:                                               ; preds = %81
  %97 = getelementptr inbounds nuw %"class.llvm::ResourcePriorityQueue", ptr %20, i32 0, i32 4
  %98 = load ptr, ptr %18, align 8
  %99 = call noundef i32 @_ZNK4llvm19TargetRegisterClass5getIDEv(ptr noundef nonnull align 8 dereferenceable(56) %98)
  %100 = zext i32 %99 to i64
  %101 = call noundef nonnull align 4 dereferenceable(4) ptr @_ZNSt6vectorIjSaIjEEixEm(ptr noundef nonnull align 8 dereferenceable(24) %97, i64 noundef %100) #2
  %102 = load i32, ptr %101, align 4
  %103 = load ptr, ptr %6, align 8
  %104 = load ptr, ptr %18, align 8
  %105 = call noundef i32 @_ZNK4llvm19TargetRegisterClass5getIDEv(ptr noundef nonnull align 8 dereferenceable(56) %104)
  %106 = call noundef i32 @_ZN4llvm21ResourcePriorityQueue19rawRegPressureDeltaEPNS_5SUnitEj(ptr noundef nonnull align 8 dereferenceable(200) %20, ptr noundef %103, i32 noundef %105)
  %107 = add i32 %102, %106
  %108 = getelementptr inbounds nuw %"class.llvm::ResourcePriorityQueue", ptr %20, i32 0, i32 5
  %109 = load ptr, ptr %18, align 8
  %110 = call noundef i32 @_ZNK4llvm19TargetRegisterClass5getIDEv(ptr noundef nonnull align 8 dereferenceable(56) %109)
  %111 = zext i32 %110 to i64
  %112 = call noundef nonnull align 4 dereferenceable(4) ptr @_ZNSt6vectorIjSaIjEEixEm(ptr noundef nonnull align 8 dereferenceable(24) %108, i64 noundef %111) #2
  %113 = load i32, ptr %112, align 4
  %114 = icmp uge i32 %107, %113
  br i1 %114, label %115, label %122

115:                                              ; preds = %96
  %116 = load ptr, ptr %6, align 8
  %117 = load ptr, ptr %18, align 8
  %118 = call noundef i32 @_ZNK4llvm19TargetRegisterClass5getIDEv(ptr noundef nonnull align 8 dereferenceable(56) %117)
  %119 = call noundef i32 @_ZN4llvm21ResourcePriorityQueue19rawRegPressureDeltaEPNS_5SUnitEj(ptr noundef nonnull align 8 dereferenceable(200) %20, ptr noundef %116, i32 noundef %118)
  %120 = load i32, ptr %8, align 4
  %121 = add nsw i32 %120, %119
  store i32 %121, ptr %8, align 4
  br label %122

122:                                              ; preds = %115, %96, %81
  br label %123

123:                                              ; preds = %122
  %124 = load ptr, ptr %16, align 8
  %125 = getelementptr inbounds ptr, ptr %124, i32 1
  store ptr %125, ptr %16, align 8
  br label %77

126:                                              ; preds = %77
  br label %127

127:                                              ; preds = %126, %64
  %128 = load i32, ptr %8, align 4
  store i32 %128, ptr %4, align 4
  br label %129

129:                                              ; preds = %127, %31
  %130 = load i32, ptr %4, align 4
  ret i32 %130
}