; Function Attrs: mustprogress nounwind uwtable
define dso_local noundef i32 @_ZN4llvm21ResourcePriorityQueue16regPressureDeltaEPNS_5SUnitEb(ptr noundef nonnull readonly align 8 captures(none) dereferenceable(200) %0, ptr noundef %1, i1 noundef zeroext %2) local_unnamed_addr #0 align 2 {
  %.not = icmp eq ptr %1, null
  br i1 %.not, label %.loopexit, label %4

4:                                                ; preds = %3
  %5 = load ptr, ptr %1, align 8
  %.not36 = icmp eq ptr %5, null
  br i1 %.not36, label %.loopexit, label %6

6:                                                ; preds = %4
  %7 = getelementptr inbounds nuw i8, ptr %5, i64 24
  %8 = load i32, ptr %7, align 8
  %9 = icmp slt i32 %8, 0
  br i1 %9, label %10, label %.loopexit

10:                                               ; preds = %6
  %11 = getelementptr inbounds nuw i8, ptr %0, i64 128
  %12 = load ptr, ptr %11, align 8
  %13 = getelementptr inbounds nuw i8, ptr %12, i64 264
  %14 = load ptr, ptr %13, align 8
  %15 = getelementptr inbounds nuw i8, ptr %12, i64 272
  %16 = load ptr, ptr %15, align 8
  %.not4049 = icmp eq ptr %14, %16
  br i1 %2, label %17, label %26

17:                                               ; preds = %10
  br i1 %.not4049, label %.loopexit, label %.lr.ph52

.lr.ph52:                                         ; preds = %17, %.lr.ph52
  %.03251 = phi i32 [ %24, %.lr.ph52 ], [ 0, %17 ]
  %.03450 = phi ptr [ %25, %.lr.ph52 ], [ %14, %17 ]
  %18 = load ptr, ptr %.03450, align 8
  %19 = load ptr, ptr %18, align 8
  %20 = getelementptr inbounds nuw i8, ptr %19, i64 24
  %21 = load i16, ptr %20, align 8
  %22 = zext i16 %21 to i32
  %23 = tail call noundef i32 @_ZN4llvm21ResourcePriorityQueue19rawRegPressureDeltaEPNS_5SUnitEj(ptr noundef nonnull align 8 dereferenceable(200) %0, ptr noundef nonnull %1, i32 noundef %22)
  %24 = add nsw i32 %23, %.03251
  %25 = getelementptr inbounds nuw i8, ptr %.03450, i64 8
  %.not40 = icmp eq ptr %25, %16
  br i1 %.not40, label %.loopexit, label %.lr.ph52

26:                                               ; preds = %10
  br i1 %.not4049, label %.loopexit, label %.lr.ph

.lr.ph:                                           ; preds = %26
  %27 = getelementptr inbounds nuw i8, ptr %0, i64 72
  %28 = getelementptr inbounds nuw i8, ptr %0, i64 96
  br label %29

29:                                               ; preds = %.lr.ph, %63
  %.248 = phi i32 [ 0, %.lr.ph ], [ %.3, %63 ]
  %.03347 = phi ptr [ %14, %.lr.ph ], [ %64, %63 ]
  %30 = load ptr, ptr %.03347, align 8
  %31 = load ptr, ptr %30, align 8
  %32 = getelementptr inbounds nuw i8, ptr %31, i64 24
  %33 = load i16, ptr %32, align 8
  %34 = zext i16 %33 to i32
  %35 = zext i16 %33 to i64
  %36 = load ptr, ptr %27, align 8
  %37 = getelementptr inbounds nuw i32, ptr %36, i64 %35
  %38 = load i32, ptr %37, align 4
  %39 = tail call noundef i32 @_ZN4llvm21ResourcePriorityQueue19rawRegPressureDeltaEPNS_5SUnitEj(ptr noundef nonnull align 8 dereferenceable(200) %0, ptr noundef nonnull %1, i32 noundef %34)
  %40 = sub i32 0, %39
  %.not38 = icmp eq i32 %38, %40
  br i1 %.not38, label %63, label %41

41:                                               ; preds = %29
  %42 = load ptr, ptr %30, align 8
  %43 = getelementptr inbounds nuw i8, ptr %42, i64 24
  %44 = load i16, ptr %43, align 8
  %45 = zext i16 %44 to i32
  %46 = zext i16 %44 to i64
  %47 = load ptr, ptr %27, align 8
  %48 = getelementptr inbounds nuw i32, ptr %47, i64 %46
  %49 = load i32, ptr %48, align 4
  %50 = tail call noundef i32 @_ZN4llvm21ResourcePriorityQueue19rawRegPressureDeltaEPNS_5SUnitEj(ptr noundef nonnull align 8 dereferenceable(200) %0, ptr noundef nonnull %1, i32 noundef %45)
  %51 = add i32 %50, %49
  %52 = load ptr, ptr %30, align 8
  %53 = getelementptr inbounds nuw i8, ptr %52, i64 24
  %54 = load i16, ptr %53, align 8
  %55 = zext i16 %54 to i64
  %56 = load ptr, ptr %28, align 8
  %57 = getelementptr inbounds nuw i32, ptr %56, i64 %55
  %58 = load i32, ptr %57, align 4
  %.not39 = icmp ult i32 %51, %58
  br i1 %.not39, label %63, label %59

59:                                               ; preds = %41
  %60 = zext i16 %54 to i32
  %61 = tail call noundef i32 @_ZN4llvm21ResourcePriorityQueue19rawRegPressureDeltaEPNS_5SUnitEj(ptr noundef nonnull align 8 dereferenceable(200) %0, ptr noundef nonnull %1, i32 noundef %60)
  %62 = add nsw i32 %61, %.248
  br label %63

63:                                               ; preds = %29, %41, %59
  %.3 = phi i32 [ %62, %59 ], [ %.248, %41 ], [ %.248, %29 ]
  %64 = getelementptr inbounds nuw i8, ptr %.03347, i64 8
  %.not37 = icmp eq ptr %64, %16
  br i1 %.not37, label %.loopexit, label %29

.loopexit:                                        ; preds = %63, %.lr.ph52, %26, %17, %3, %4, %6
  %.0 = phi i32 [ 0, %6 ], [ 0, %4 ], [ 0, %3 ], [ 0, %17 ], [ 0, %26 ], [ %24, %.lr.ph52 ], [ %.3, %63 ]
  ret i32 %.0
}